target datalayout = "e-m:e-p270:32:32-p271:32:32-p272:64:64-i64:64-i128:128-f80:128-n8:16:32:64-S128"
target triple = "x86_64-pc-linux-gnu"

%struct.VariableStatData = type { ptr, ptr, ptr, ptr, i32, i32, i32, i8, i8 }
%struct.Node = type { i32 }
%struct.Expr = type { i32 }
%struct.FormData_pg_statistic = type { i32, i16, i8, float, i32, float, i16, i16, i16, i16, i16, i32, i32, i32, i32, i32, i32, i32, i32, i32, i32 }
%struct.HeapTupleData = type { i32, %struct.ItemPointerData, i32, ptr }
%struct.ItemPointerData = type { %struct.BlockIdData, i16 }
%struct.BlockIdData = type { i16, i16 }
%struct.HeapTupleHeaderData = type { %union.anon.4, %struct.ItemPointerData, i16, i16, i8, [0 x i8] }
%union.anon.4 = type { %struct.HeapTupleFields }
%struct.HeapTupleFields = type { i32, i32, %union.anon.5 }
%union.anon.5 = type { i32 }
%struct.Var = type { %struct.Expr, i32, i16, i32, i32, i32, ptr, i32, i32, i32, i16, i32 }

@.str.1 = private unnamed_addr constant [11 x i8] c"selfuncs.c\00", align 1
@.str.2 = private unnamed_addr constant [30 x i8] c"unrecognized nulltesttype: %d\00", align 1
@__func__.nulltestsel = private unnamed_addr constant [12 x i8] c"nulltestsel\00", align 1

; Function Attrs: inlinehint nounwind uwtable
define internal ptr @GETSTRUCT(ptr noundef %0) #1 {
  %2 = alloca ptr, align 8
  store ptr %0, ptr %2, align 8
  %3 = load ptr, ptr %2, align 8
  %4 = getelementptr inbounds nuw %struct.HeapTupleData, ptr %3, i32 0, i32 3
  %5 = load ptr, ptr %4, align 8
  %6 = load ptr, ptr %2, align 8
  %7 = getelementptr inbounds nuw %struct.HeapTupleData, ptr %6, i32 0, i32 3
  %8 = load ptr, ptr %7, align 8
  %9 = getelementptr inbounds nuw %struct.HeapTupleHeaderData, ptr %8, i32 0, i32 4
  %10 = load i8, ptr %9, align 2
  %11 = zext i8 %10 to i32
  %12 = sext i32 %11 to i64
  %13 = getelementptr inbounds i8, ptr %5, i64 %12
  ret ptr %13
}

; Function Attrs: nounwind uwtable
define dso_local double @nulltestsel(ptr noundef %0, i32 noundef %1, ptr noundef %2, i32 noundef %3, i32 noundef %4, ptr noundef %5) #0 {
  %7 = alloca double, align 8
  %8 = alloca ptr, align 8
  %9 = alloca i32, align 4
  %10 = alloca ptr, align 8
  %11 = alloca i32, align 4
  %12 = alloca i32, align 4
  %13 = alloca ptr, align 8
  %14 = alloca %struct.VariableStatData, align 8
  %15 = alloca double, align 8
  %16 = alloca ptr, align 8
  %17 = alloca double, align 8
  %18 = alloca i32, align 4
  store ptr %0, ptr %8, align 8
  store i32 %1, ptr %9, align 4
  store ptr %2, ptr %10, align 8
  store i32 %3, ptr %11, align 4
  store i32 %4, ptr %12, align 4
  store ptr %5, ptr %13, align 8
  call void @llvm.lifetime.start.p0(i64 48, ptr %14) #10
  call void @llvm.lifetime.start.p0(i64 8, ptr %15) #10
  %19 = load ptr, ptr %8, align 8
  %20 = load ptr, ptr %10, align 8
  %21 = load i32, ptr %11, align 4
  call void @examine_variable(ptr noundef %19, ptr noundef %20, i32 noundef %21, ptr noundef %14)
  %22 = getelementptr inbounds nuw %struct.VariableStatData, ptr %14, i32 0, i32 2
  %23 = load ptr, ptr %22, align 8
  %24 = icmp ne ptr %23, null
  br i1 %24, label %25, label %55

25:                                               ; preds = %6
  call void @llvm.lifetime.start.p0(i64 8, ptr %16) #10
  call void @llvm.lifetime.start.p0(i64 8, ptr %17) #10
  %26 = getelementptr inbounds nuw %struct.VariableStatData, ptr %14, i32 0, i32 2
  %27 = load ptr, ptr %26, align 8
  %28 = call ptr @GETSTRUCT(ptr noundef %27)
  store ptr %28, ptr %16, align 8
  %29 = load ptr, ptr %16, align 8
  %30 = getelementptr inbounds nuw %struct.FormData_pg_statistic, ptr %29, i32 0, i32 3
  %31 = load float, ptr %30, align 4
  %32 = fpext float %31 to double
  store double %32, ptr %17, align 8
  %33 = load i32, ptr %9, align 4
  switch i32 %33, label %39 [
    i32 0, label %34
    i32 1, label %36
  ]

34:                                               ; preds = %25
  %35 = load double, ptr %17, align 8
  store double %35, ptr %15, align 8
  br label %51

36:                                               ; preds = %25
  %37 = load double, ptr %17, align 8
  %38 = fsub double 1.000000e+00, %37
  store double %38, ptr %15, align 8
  br label %51

39:                                               ; preds = %25
  br label %40

40:                                               ; preds = %39
  br i1 true, label %41, label %43

41:                                               ; preds = %40
  %42 = call zeroext i1 @errstart_cold(i32 noundef 21, ptr noundef null) #11
  br i1 %42, label %45, label %48

43:                                               ; preds = %40
  %44 = call zeroext i1 @errstart(i32 noundef 21, ptr noundef null)
  br i1 %44, label %45, label %48

45:                                               ; preds = %43, %41
  %46 = load i32, ptr %9, align 4
  %47 = call i32 (ptr, ...) @errmsg_internal(ptr noundef @.str.2, i32 noundef %46)
  call void @errfinish(ptr noundef @.str.1, i32 noundef 1734, ptr noundef @__func__.nulltestsel)
  br label %48

48:                                               ; preds = %45, %43, %41
  unreachable

49:                                               ; No predecessors!
  br label %50

50:                                               ; preds = %49
  store double 0.000000e+00, ptr %7, align 8
  store i32 1, ptr %18, align 4
  br label %52

51:                                               ; preds = %36, %34
  store i32 0, ptr %18, align 4
  br label %52

52:                                               ; preds = %51, %50
  call void @llvm.lifetime.end.p0(i64 8, ptr %17) #10
  call void @llvm.lifetime.end.p0(i64 8, ptr %16) #10
  %53 = load i32, ptr %18, align 4
  switch i32 %53, label %120 [
    i32 0, label %54
  ]

54:                                               ; preds = %52
  br label %94

55:                                               ; preds = %6
  %56 = getelementptr inbounds nuw %struct.VariableStatData, ptr %14, i32 0, i32 0
  %57 = load ptr, ptr %56, align 8
  %58 = icmp ne ptr %57, null
  br i1 %58, label %59, label %76

59:                                               ; preds = %55
  %60 = getelementptr inbounds nuw %struct.VariableStatData, ptr %14, i32 0, i32 0
  %61 = load ptr, ptr %60, align 8
  %62 = getelementptr inbounds nuw %struct.Node, ptr %61, i32 0, i32 0
  %63 = load i32, ptr %62, align 4
  %64 = icmp eq i32 %63, 6
  br i1 %64, label %65, label %76

65:                                               ; preds = %59
  %66 = getelementptr inbounds nuw %struct.VariableStatData, ptr %14, i32 0, i32 0
  %67 = load ptr, ptr %66, align 8
  %68 = getelementptr inbounds nuw %struct.Var, ptr %67, i32 0, i32 2
  %69 = load i16, ptr %68, align 8
  %70 = sext i16 %69 to i32
  %71 = icmp slt i32 %70, 0
  br i1 %71, label %72, label %76

72:                                               ; preds = %65
  %73 = load i32, ptr %9, align 4
  %74 = icmp eq i32 %73, 0
  %75 = select i1 %74, double 0.000000e+00, double 1.000000e+00
  store double %75, ptr %15, align 8
  br label %93

76:                                               ; preds = %65, %59, %55
  %77 = load i32, ptr %9, align 4
  switch i32 %77, label %80 [
    i32 0, label %78
    i32 1, label %79
  ]

78:                                               ; preds = %76
  store double 5.000000e-03, ptr %15, align 8
  br label %92

79:                                               ; preds = %76
  store double 0x3FEFD70A3D70A3D7, ptr %15, align 8
  br label %92

80:                                               ; preds = %76
  br label %81

81:                                               ; preds = %80
  br i1 true, label %82, label %84

82:                                               ; preds = %81
  %83 = call zeroext i1 @errstart_cold(i32 noundef 21, ptr noundef null) #11
  br i1 %83, label %86, label %89

84:                                               ; preds = %81
  %85 = call zeroext i1 @errstart(i32 noundef 21, ptr noundef null)
  br i1 %85, label %86, label %89

86:                                               ; preds = %84, %82
  %87 = load i32, ptr %9, align 4
  %88 = call i32 (ptr, ...) @errmsg_internal(ptr noundef @.str.2, i32 noundef %87)
  call void @errfinish(ptr noundef @.str.1, i32 noundef 1762, ptr noundef @__func__.nulltestsel)
  br label %89

89:                                               ; preds = %86, %84, %82
  unreachable

90:                                               ; No predecessors!
  br label %91

91:                                               ; preds = %90
  store double 0.000000e+00, ptr %7, align 8
  store i32 1, ptr %18, align 4
  br label %120

92:                                               ; preds = %79, %78
  br label %93

93:                                               ; preds = %92, %72
  br label %94

94:                                               ; preds = %93, %54
  br label %95

95:                                               ; preds = %94
  %96 = getelementptr inbounds nuw %struct.VariableStatData, ptr %14, i32 0, i32 2
  %97 = load ptr, ptr %96, align 8
  %98 = icmp ne ptr %97, null
  br i1 %98, label %99, label %104

99:                                               ; preds = %95
  %100 = getelementptr inbounds nuw %struct.VariableStatData, ptr %14, i32 0, i32 3
  %101 = load ptr, ptr %100, align 8
  %102 = getelementptr inbounds nuw %struct.VariableStatData, ptr %14, i32 0, i32 2
  %103 = load ptr, ptr %102, align 8
  call void %101(ptr noundef %103)
  br label %104

104:                                              ; preds = %99, %95
  br label %105

105:                                              ; preds = %104
  br label %106

106:                                              ; preds = %105
  br label %107

107:                                              ; preds = %106
  %108 = load double, ptr %15, align 8
  %109 = fcmp olt double %108, 0.000000e+00
  br i1 %109, label %110, label %111

110:                                              ; preds = %107
  store double 0.000000e+00, ptr %15, align 8
  br label %116

111:                                              ; preds = %107
  %112 = load double, ptr %15, align 8
  %113 = fcmp ogt double %112, 1.000000e+00
  br i1 %113, label %114, label %115

114:                                              ; preds = %111
  store double 1.000000e+00, ptr %15, align 8
  br label %115

115:                                              ; preds = %114, %111
  br label %116

116:                                              ; preds = %115, %110
  br label %117

117:                                              ; preds = %116
  br label %118

118:                                              ; preds = %117
  %119 = load double, ptr %15, align 8
  store double %119, ptr %7, align 8
  store i32 1, ptr %18, align 4
  br label %120

120:                                              ; preds = %118, %91, %52
  call void @llvm.lifetime.end.p0(i64 8, ptr %15) #10
  call void @llvm.lifetime.end.p0(i64 48, ptr %14) #10
  %121 = load double, ptr %7, align 8
  ret double %121
}