; Function Attrs: nounwind uwtable
define dso_local double @nulltestsel(ptr noundef %0, i32 noundef %1, ptr noundef %2, i32 noundef %3, i32 noundef %4, ptr noundef readnone captures(none) %5) local_unnamed_addr #0 {
  %7 = alloca %struct.VariableStatData, align 8
  call void @llvm.lifetime.start.p0(i64 48, ptr nonnull %7) #12
  call void @examine_variable(ptr noundef %0, ptr noundef %2, i32 noundef %3, ptr noundef nonnull %7)
  %8 = getelementptr inbounds nuw i8, ptr %7, i64 16
  %9 = load ptr, ptr %8, align 8
  %.not = icmp eq ptr %9, null
  br i1 %.not, label %24, label %10

10:                                               ; preds = %6
  %11 = getelementptr i8, ptr %9, i64 16
  %.val = load ptr, ptr %11, align 8
  %12 = getelementptr inbounds nuw i8, ptr %.val, i64 22
  %13 = load i8, ptr %12, align 2
  %14 = zext i8 %13 to i64
  %15 = getelementptr inbounds nuw i8, ptr %.val, i64 %14
  %16 = getelementptr inbounds nuw i8, ptr %15, i64 8
  %17 = load float, ptr %16, align 4
  %18 = fpext float %17 to double
  switch i32 %1, label %21 [
    i32 0, label %41
    i32 1, label %19
  ]

19:                                               ; preds = %10
  %20 = fsub double 1.000000e+00, %18
  br label %41

21:                                               ; preds = %10
  %22 = call zeroext i1 @errstart_cold(i32 noundef 21, ptr noundef null) #14
  call void @llvm.assume(i1 %22)
  %23 = call i32 (ptr, ...) @errmsg_internal(ptr noundef nonnull @.str.2, i32 noundef %1) #12
  call void @errfinish(ptr noundef nonnull @.str.1, i32 noundef 1734, ptr noundef nonnull @__func__.nulltestsel) #12
  unreachable

24:                                               ; preds = %6
  %25 = load ptr, ptr %7, align 8
  %.not19 = icmp eq ptr %25, null
  br i1 %.not19, label %36, label %26

26:                                               ; preds = %24
  %27 = load i32, ptr %25, align 4
  %28 = icmp eq i32 %27, 6
  br i1 %28, label %29, label %36

29:                                               ; preds = %26
  %30 = getelementptr inbounds nuw i8, ptr %25, i64 8
  %31 = load i16, ptr %30, align 8
  %32 = icmp slt i16 %31, 0
  br i1 %32, label %33, label %36

33:                                               ; preds = %29
  %34 = icmp eq i32 %1, 0
  %35 = select i1 %34, double 0.000000e+00, double 1.000000e+00
  br label %.thread26

36:                                               ; preds = %29, %26, %24
  switch i32 %1, label %38 [
    i32 0, label %.thread26
    i32 1, label %37
  ]

37:                                               ; preds = %36
  br label %.thread26

38:                                               ; preds = %36
  %39 = call zeroext i1 @errstart_cold(i32 noundef 21, ptr noundef null) #14
  call void @llvm.assume(i1 %39)
  %40 = call i32 (ptr, ...) @errmsg_internal(ptr noundef nonnull @.str.2, i32 noundef %1) #12
  call void @errfinish(ptr noundef nonnull @.str.1, i32 noundef 1762, ptr noundef nonnull @__func__.nulltestsel) #12
  unreachable

41:                                               ; preds = %19, %10
  %.1 = phi double [ %20, %19 ], [ %18, %10 ]
  %42 = getelementptr inbounds nuw i8, ptr %7, i64 24
  %43 = load ptr, ptr %42, align 8
  call void %43(ptr noundef nonnull %9) #12
  %44 = fcmp olt double %.1, 0.000000e+00
  br i1 %44, label %.thread26, label %45

45:                                               ; preds = %41
  %46 = fcmp ogt double %.1, 1.000000e+00
  br i1 %46, label %47, label %.thread26

47:                                               ; preds = %45
  br label %.thread26

.thread26:                                        ; preds = %33, %37, %36, %47, %45, %41
  %.2 = phi double [ 1.000000e+00, %47 ], [ %.1, %45 ], [ 0.000000e+00, %41 ], [ 5.000000e-03, %36 ], [ 0x3FEFD70A3D70A3D7, %37 ], [ %35, %33 ]
  call void @llvm.lifetime.end.p0(i64 48, ptr nonnull %7) #12
  ret double %.2
}